target datalayout = "e-m:e-p270:32:32-p271:32:32-p272:64:64-i64:64-i128:128-f80:128-n8:16:32:64-S128"
target triple = "x86_64-pc-linux-gnu"

%class.CVQualifiers = type { ptr, i8, i8, %"class.std::vector", %"class.std::vector" }
%"class.std::vector" = type { %"struct.std::_Bvector_base" }
%"struct.std::_Bvector_base" = type { %"struct.std::_Bvector_base<std::allocator<bool>>::_Bvector_impl" }
%"struct.std::_Bvector_base<std::allocator<bool>>::_Bvector_impl" = type { %"struct.std::_Bvector_base<std::allocator<bool>>::_Bvector_impl_data" }
%"struct.std::_Bvector_base<std::allocator<bool>>::_Bvector_impl_data" = type { %"struct.std::_Bit_iterator", %"struct.std::_Bit_iterator", ptr }
%"struct.std::_Bit_iterator" = type { %"struct.std::_Bit_iterator_base.base", [4 x i8] }
%"struct.std::_Bit_iterator_base.base" = type <{ ptr, i32 }>
%"struct.std::_Bit_reference" = type { ptr, i64 }
%"struct.std::_Bit_iterator_base" = type <{ ptr, i32, [4 x i8] }>

; Function Attrs: mustprogress nounwind uwtable
define linkonce_odr dso_local void @_ZNSt14_Bit_referenceC2EPmm(ptr noundef nonnull align 8 dereferenceable(16) %0, ptr noundef %1, i64 noundef %2) unnamed_addr #4 comdat align 2 {
  %4 = alloca ptr, align 8
  %5 = alloca ptr, align 8
  %6 = alloca i64, align 8
  store ptr %0, ptr %4, align 8
  store ptr %1, ptr %5, align 8
  store i64 %2, ptr %6, align 8
  %7 = load ptr, ptr %4, align 8
  %8 = getelementptr inbounds %"struct.std::_Bit_reference", ptr %7, i32 0, i32 0
  %9 = load ptr, ptr %5, align 8
  store ptr %9, ptr %8, align 8
  %10 = getelementptr inbounds %"struct.std::_Bit_reference", ptr %7, i32 0, i32 1
  %11 = load i64, ptr %6, align 8
  store i64 %11, ptr %10, align 8
  ret void
}

; Function Attrs: mustprogress nounwind uwtable
define linkonce_odr dso_local void @_ZNSt18_Bit_iterator_base10_M_bump_upEv(ptr noundef nonnull align 8 dereferenceable(12) %0) #4 comdat align 2 {
  %2 = alloca ptr, align 8
  store ptr %0, ptr %2, align 8
  %3 = load ptr, ptr %2, align 8
  %4 = getelementptr inbounds %"struct.std::_Bit_iterator_base", ptr %3, i32 0, i32 1
  %5 = load i32, ptr %4, align 8
  %6 = add i32 %5, 1
  store i32 %6, ptr %4, align 8
  %7 = icmp eq i32 %5, 63
  br i1 %7, label %8, label %13

8:                                                ; preds = %1
  %9 = getelementptr inbounds %"struct.std::_Bit_iterator_base", ptr %3, i32 0, i32 1
  store i32 0, ptr %9, align 8
  %10 = getelementptr inbounds %"struct.std::_Bit_iterator_base", ptr %3, i32 0, i32 0
  %11 = load ptr, ptr %10, align 8
  %12 = getelementptr inbounds i64, ptr %11, i32 1
  store ptr %12, ptr %10, align 8
  br label %13

13:                                               ; preds = %8, %1
  ret void
}

; Function Attrs: mustprogress nounwind uwtable
define linkonce_odr dso_local { ptr, i32 } @_ZNSt6vectorIbSaIbEE3endEv(ptr noundef nonnull align 8 dereferenceable(40) %0) #4 comdat align 2 {
  %2 = alloca %"struct.std::_Bit_iterator", align 8
  %3 = alloca ptr, align 8
  store ptr %0, ptr %3, align 8
  %4 = load ptr, ptr %3, align 8
  %5 = getelementptr inbounds %"struct.std::_Bvector_base", ptr %4, i32 0, i32 0
  %6 = getelementptr inbounds %"struct.std::_Bvector_base<std::allocator<bool>>::_Bvector_impl_data", ptr %5, i32 0, i32 1
  call void @llvm.memcpy.p0.p0.i64(ptr align 8 %2, ptr align 8 %6, i64 16, i1 false)
  %7 = load { ptr, i32 }, ptr %2, align 8
  ret { ptr, i32 } %7
}

; Function Attrs: mustprogress nounwind uwtable
define linkonce_odr dso_local noundef nonnull align 8 dereferenceable(16) ptr @_ZNSt14_Bit_referenceaSEb(ptr noundef nonnull align 8 dereferenceable(16) %0, i1 noundef zeroext %1) #4 comdat align 2 {
  %3 = alloca ptr, align 8
  %4 = alloca i8, align 1
  store ptr %0, ptr %3, align 8
  %5 = zext i1 %1 to i8
  store i8 %5, ptr %4, align 1
  %6 = load ptr, ptr %3, align 8
  %7 = load i8, ptr %4, align 1
  %8 = trunc i8 %7 to i1
  br i1 %8, label %9, label %16

9:                                                ; preds = %2
  %10 = getelementptr inbounds %"struct.std::_Bit_reference", ptr %6, i32 0, i32 1
  %11 = load i64, ptr %10, align 8
  %12 = getelementptr inbounds %"struct.std::_Bit_reference", ptr %6, i32 0, i32 0
  %13 = load ptr, ptr %12, align 8
  %14 = load i64, ptr %13, align 8
  %15 = or i64 %14, %11
  store i64 %15, ptr %13, align 8
  br label %24

16:                                               ; preds = %2
  %17 = getelementptr inbounds %"struct.std::_Bit_reference", ptr %6, i32 0, i32 1
  %18 = load i64, ptr %17, align 8
  %19 = xor i64 %18, -1
  %20 = getelementptr inbounds %"struct.std::_Bit_reference", ptr %6, i32 0, i32 0
  %21 = load ptr, ptr %20, align 8
  %22 = load i64, ptr %21, align 8
  %23 = and i64 %22, %19
  store i64 %23, ptr %21, align 8
  br label %24

24:                                               ; preds = %16, %9
  ret ptr %6
}

; Function Attrs: mustprogress uwtable
define linkonce_odr dso_local { ptr, i64 } @_ZNKSt13_Bit_iteratordeEv(ptr noundef nonnull align 8 dereferenceable(12) %0) #5 comdat align 2 {
  %2 = alloca %"struct.std::_Bit_reference", align 8
  %3 = alloca ptr, align 8
  store ptr %0, ptr %3, align 8
  %4 = load ptr, ptr %3, align 8
  %5 = getelementptr inbounds %"struct.std::_Bit_iterator_base", ptr %4, i32 0, i32 0
  %6 = load ptr, ptr %5, align 8
  %7 = getelementptr inbounds %"struct.std::_Bit_iterator_base", ptr %4, i32 0, i32 1
  %8 = load i32, ptr %7, align 8
  %9 = zext i32 %8 to i64
  %10 = shl i64 1, %9
  call void @_ZNSt14_Bit_referenceC2EPmm(ptr noundef nonnull align 8 dereferenceable(16) %2, ptr noundef %6, i64 noundef %10)
  %11 = load { ptr, i64 }, ptr %2, align 8
  ret { ptr, i64 } %11
}

; Function Attrs: mustprogress nounwind uwtable
define linkonce_odr dso_local { ptr, i32 } @_ZNSt13_Bit_iteratorppEi(ptr noundef nonnull align 8 dereferenceable(12) %0, i32 noundef %1) #4 comdat align 2 {
  %3 = alloca %"struct.std::_Bit_iterator", align 8
  %4 = alloca ptr, align 8
  %5 = alloca i32, align 4
  store ptr %0, ptr %4, align 8
  store i32 %1, ptr %5, align 4
  %6 = load ptr, ptr %4, align 8
  call void @llvm.memcpy.p0.p0.i64(ptr align 8 %3, ptr align 8 %6, i64 16, i1 false)
  call void @_ZNSt18_Bit_iterator_base10_M_bump_upEv(ptr noundef nonnull align 8 dereferenceable(12) %6)
  %7 = load { ptr, i32 }, ptr %3, align 8
  ret { ptr, i32 } %7
}

; Function Attrs: mustprogress nounwind uwtable
define linkonce_odr dso_local noundef ptr @_ZNKSt13_Bvector_baseISaIbEE13_Bvector_impl11_M_end_addrEv(ptr noundef nonnull align 8 dereferenceable(40) %0) #4 comdat align 2 {
  %2 = alloca ptr, align 8
  %3 = alloca ptr, align 8
  store ptr %0, ptr %3, align 8
  %4 = load ptr, ptr %3, align 8
  %5 = getelementptr inbounds %"struct.std::_Bvector_base<std::allocator<bool>>::_Bvector_impl_data", ptr %4, i32 0, i32 2
  %6 = load ptr, ptr %5, align 8
  %7 = icmp ne ptr %6, null
  br i1 %7, label %8, label %13

8:                                                ; preds = %1
  %9 = getelementptr inbounds %"struct.std::_Bvector_base<std::allocator<bool>>::_Bvector_impl_data", ptr %4, i32 0, i32 2
  %10 = load ptr, ptr %9, align 8
  %11 = getelementptr inbounds i64, ptr %10, i64 -1
  %12 = getelementptr inbounds i64, ptr %11, i64 1
  store ptr %12, ptr %2, align 8
  br label %14

13:                                               ; preds = %1
  store ptr null, ptr %2, align 8
  br label %14

14:                                               ; preds = %13, %8
  %15 = load ptr, ptr %2, align 8
  ret ptr %15
}

; Function Attrs: mustprogress uwtable
define linkonce_odr dso_local void @_ZNSt6vectorIbSaIbEE9push_backEb(ptr noundef nonnull align 8 dereferenceable(40) %0, i1 noundef zeroext %1) #5 comdat align 2 {
  %3 = alloca ptr, align 8
  %4 = alloca i8, align 1
  %5 = alloca %"struct.std::_Bit_reference", align 8
  %6 = alloca %"struct.std::_Bit_iterator", align 8
  %7 = alloca %"struct.std::_Bit_iterator", align 8
  store ptr %0, ptr %3, align 8
  %8 = zext i1 %1 to i8
  store i8 %8, ptr %4, align 1
  %9 = load ptr, ptr %3, align 8
  %10 = getelementptr inbounds %"struct.std::_Bvector_base", ptr %9, i32 0, i32 0
  %11 = getelementptr inbounds %"struct.std::_Bvector_base<std::allocator<bool>>::_Bvector_impl_data", ptr %10, i32 0, i32 1
  %12 = getelementptr inbounds %"struct.std::_Bit_iterator_base", ptr %11, i32 0, i32 0
  %13 = load ptr, ptr %12, align 8
  %14 = getelementptr inbounds %"struct.std::_Bvector_base", ptr %9, i32 0, i32 0
  %15 = call noundef ptr @_ZNKSt13_Bvector_baseISaIbEE13_Bvector_impl11_M_end_addrEv(ptr noundef nonnull align 8 dereferenceable(40) %14) #3
  %16 = icmp ne ptr %13, %15
  br i1 %16, label %17, label %33

17:                                               ; preds = %2
  %18 = load i8, ptr %4, align 1
  %19 = trunc i8 %18 to i1
  %20 = getelementptr inbounds %"struct.std::_Bvector_base", ptr %9, i32 0, i32 0
  %21 = getelementptr inbounds %"struct.std::_Bvector_base<std::allocator<bool>>::_Bvector_impl_data", ptr %20, i32 0, i32 1
  %22 = call { ptr, i32 } @_ZNSt13_Bit_iteratorppEi(ptr noundef nonnull align 8 dereferenceable(12) %21, i32 noundef 0)
  %23 = getelementptr inbounds { ptr, i32 }, ptr %6, i32 0, i32 0
  %24 = extractvalue { ptr, i32 } %22, 0
  store ptr %24, ptr %23, align 8
  %25 = getelementptr inbounds { ptr, i32 }, ptr %6, i32 0, i32 1
  %26 = extractvalue { ptr, i32 } %22, 1
  store i32 %26, ptr %25, align 8
  %27 = call { ptr, i64 } @_ZNKSt13_Bit_iteratordeEv(ptr noundef nonnull align 8 dereferenceable(12) %6)
  %28 = getelementptr inbounds { ptr, i64 }, ptr %5, i32 0, i32 0
  %29 = extractvalue { ptr, i64 } %27, 0
  store ptr %29, ptr %28, align 8
  %30 = getelementptr inbounds { ptr, i64 }, ptr %5, i32 0, i32 1
  %31 = extractvalue { ptr, i64 } %27, 1
  store i64 %31, ptr %30, align 8
  %32 = call noundef nonnull align 8 dereferenceable(16) ptr @_ZNSt14_Bit_referenceaSEb(ptr noundef nonnull align 8 dereferenceable(16) %5, i1 noundef zeroext %19) #3
  br label %45

33:                                               ; preds = %2
  %34 = call { ptr, i32 } @_ZNSt6vectorIbSaIbEE3endEv(ptr noundef nonnull align 8 dereferenceable(40) %9) #3
  %35 = getelementptr inbounds { ptr, i32 }, ptr %7, i32 0, i32 0
  %36 = extractvalue { ptr, i32 } %34, 0
  store ptr %36, ptr %35, align 8
  %37 = getelementptr inbounds { ptr, i32 }, ptr %7, i32 0, i32 1
  %38 = extractvalue { ptr, i32 } %34, 1
  store i32 %38, ptr %37, align 8
  %39 = load i8, ptr %4, align 1
  %40 = trunc i8 %39 to i1
  %41 = getelementptr inbounds { ptr, i32 }, ptr %7, i32 0, i32 0
  %42 = load ptr, ptr %41, align 8
  %43 = getelementptr inbounds { ptr, i32 }, ptr %7, i32 0, i32 1
  %44 = load i32, ptr %43, align 8
  call void @_ZNSt6vectorIbSaIbEE13_M_insert_auxESt13_Bit_iteratorb(ptr noundef nonnull align 8 dereferenceable(40) %9, ptr %42, i32 %44, i1 noundef zeroext %40)
  br label %45

45:                                               ; preds = %33, %17
  ret void
}

; Function Attrs: mustprogress uwtable
define dso_local void @_ZN12CVQualifiers14add_qualifiersEbb(ptr noundef nonnull align 8 dereferenceable(96) %0, i1 noundef zeroext %1, i1 noundef zeroext %2) #5 align 2 {
  %4 = alloca ptr, align 8
  %5 = alloca i8, align 1
  %6 = alloca i8, align 1
  store ptr %0, ptr %4, align 8
  %7 = zext i1 %1 to i8
  store i8 %7, ptr %5, align 1
  %8 = zext i1 %2 to i8
  store i8 %8, ptr %6, align 1
  %9 = load ptr, ptr %4, align 8
  %10 = getelementptr inbounds %class.CVQualifiers, ptr %9, i32 0, i32 3
  %11 = load i8, ptr %5, align 1
  %12 = trunc i8 %11 to i1
  call void @_ZNSt6vectorIbSaIbEE9push_backEb(ptr noundef nonnull align 8 dereferenceable(40) %10, i1 noundef zeroext %12)
  %13 = getelementptr inbounds %class.CVQualifiers, ptr %9, i32 0, i32 4
  %14 = load i8, ptr %6, align 1
  %15 = trunc i8 %14 to i1
  call void @_ZNSt6vectorIbSaIbEE9push_backEb(ptr noundef nonnull align 8 dereferenceable(40) %13, i1 noundef zeroext %15)
  ret void
}