; Function Attrs: mustprogress uwtable
define dso_local void @_ZN12CVQualifiers14add_qualifiersEbb(ptr noundef nonnull align 8 dereferenceable(96) %0, i1 noundef zeroext %1, i1 noundef zeroext %2) local_unnamed_addr #4 align 2 {
  %4 = getelementptr inbounds i8, ptr %0, i64 32
  %5 = load ptr, ptr %4, align 8
  %6 = getelementptr inbounds i8, ptr %0, i64 48
  %7 = load ptr, ptr %6, align 8
  %.not.i = icmp eq ptr %5, %7
  %.sroa.2.0..sroa_idx.i.i = getelementptr inbounds i8, ptr %0, i64 40
  %.sroa.2.0.copyload.i5.i = load i32, ptr %.sroa.2.0..sroa_idx.i.i, align 8
  br i1 %.not.i, label %22, label %8

8:                                                ; preds = %3
  %9 = add i32 %.sroa.2.0.copyload.i5.i, 1
  store i32 %9, ptr %.sroa.2.0..sroa_idx.i.i, align 8
  %10 = icmp eq i32 %.sroa.2.0.copyload.i5.i, 63
  br i1 %10, label %11, label %_ZNSt13_Bit_iteratorppEi.exit.i

11:                                               ; preds = %8
  store i32 0, ptr %.sroa.2.0..sroa_idx.i.i, align 8
  %12 = getelementptr inbounds i8, ptr %5, i64 8
  store ptr %12, ptr %4, align 8
  br label %_ZNSt13_Bit_iteratorppEi.exit.i

_ZNSt13_Bit_iteratorppEi.exit.i:                  ; preds = %11, %8
  %13 = zext nneg i32 %.sroa.2.0.copyload.i5.i to i64
  %14 = shl nuw i64 1, %13
  br i1 %1, label %15, label %18

15:                                               ; preds = %_ZNSt13_Bit_iteratorppEi.exit.i
  %16 = load i64, ptr %5, align 8
  %17 = or i64 %16, %14
  store i64 %17, ptr %5, align 8
  br label %_ZNSt6vectorIbSaIbEE9push_backEb.exit

18:                                               ; preds = %_ZNSt13_Bit_iteratorppEi.exit.i
  %19 = xor i64 %14, -1
  %20 = load i64, ptr %5, align 8
  %21 = and i64 %20, %19
  store i64 %21, ptr %5, align 8
  br label %_ZNSt6vectorIbSaIbEE9push_backEb.exit

22:                                               ; preds = %3
  %23 = getelementptr inbounds i8, ptr %0, i64 16
  tail call void @_ZNSt6vectorIbSaIbEE13_M_insert_auxESt13_Bit_iteratorb(ptr noundef nonnull align 8 dereferenceable(40) %23, ptr %5, i32 %.sroa.2.0.copyload.i5.i, i1 noundef zeroext %1)
  br label %_ZNSt6vectorIbSaIbEE9push_backEb.exit

_ZNSt6vectorIbSaIbEE9push_backEb.exit:            ; preds = %15, %18, %22
  %24 = getelementptr inbounds i8, ptr %0, i64 72
  %25 = load ptr, ptr %24, align 8
  %26 = getelementptr inbounds i8, ptr %0, i64 88
  %27 = load ptr, ptr %26, align 8
  %.not.i2 = icmp eq ptr %25, %27
  %.sroa.2.0..sroa_idx.i.i3 = getelementptr inbounds i8, ptr %0, i64 80
  %.sroa.2.0.copyload.i5.i4 = load i32, ptr %.sroa.2.0..sroa_idx.i.i3, align 8
  br i1 %.not.i2, label %42, label %28

28:                                               ; preds = %_ZNSt6vectorIbSaIbEE9push_backEb.exit
  %29 = add i32 %.sroa.2.0.copyload.i5.i4, 1
  store i32 %29, ptr %.sroa.2.0..sroa_idx.i.i3, align 8
  %30 = icmp eq i32 %.sroa.2.0.copyload.i5.i4, 63
  br i1 %30, label %31, label %_ZNSt13_Bit_iteratorppEi.exit.i5

31:                                               ; preds = %28
  store i32 0, ptr %.sroa.2.0..sroa_idx.i.i3, align 8
  %32 = getelementptr inbounds i8, ptr %25, i64 8
  store ptr %32, ptr %24, align 8
  br label %_ZNSt13_Bit_iteratorppEi.exit.i5

_ZNSt13_Bit_iteratorppEi.exit.i5:                 ; preds = %31, %28
  %33 = zext nneg i32 %.sroa.2.0.copyload.i5.i4 to i64
  %34 = shl nuw i64 1, %33
  br i1 %2, label %35, label %38

35:                                               ; preds = %_ZNSt13_Bit_iteratorppEi.exit.i5
  %36 = load i64, ptr %25, align 8
  %37 = or i64 %36, %34
  store i64 %37, ptr %25, align 8
  br label %_ZNSt6vectorIbSaIbEE9push_backEb.exit6

38:                                               ; preds = %_ZNSt13_Bit_iteratorppEi.exit.i5
  %39 = xor i64 %34, -1
  %40 = load i64, ptr %25, align 8
  %41 = and i64 %40, %39
  store i64 %41, ptr %25, align 8
  br label %_ZNSt6vectorIbSaIbEE9push_backEb.exit6

42:                                               ; preds = %_ZNSt6vectorIbSaIbEE9push_backEb.exit
  %43 = getelementptr inbounds i8, ptr %0, i64 56
  tail call void @_ZNSt6vectorIbSaIbEE13_M_insert_auxESt13_Bit_iteratorb(ptr noundef nonnull align 8 dereferenceable(40) %43, ptr %25, i32 %.sroa.2.0.copyload.i5.i4, i1 noundef zeroext %2)
  br label %_ZNSt6vectorIbSaIbEE9push_backEb.exit6

_ZNSt6vectorIbSaIbEE9push_backEb.exit6:           ; preds = %35, %38, %42
  ret void
}